; ModuleID = '30/1808.c'
source_filename = "30/1808.c"
target datalayout = "e-m:e-p270:32:32-p271:32:32-p272:64:64-i64:64-f80:128-n8:16:32:64-S128"
target triple = "x86_64-pc-linux-gnu"

@.str = private unnamed_addr constant [3 x i8] c"%d\00", align 1

; Function Attrs: noinline nounwind uwtable
define dso_local i32 @main() #0 {
  %1 = alloca i32, align 4
  %2 = alloca i32, align 4
  %3 = alloca i32, align 4
  %4 = alloca i32, align 4
  store i32 0, i32* %1, align 4
  store i32 0, i32* %3, align 4
  %5 = call i32 (i8*, ...) @__isoc99_scanf(i8* getelementptr inbounds ([3 x i8], [3 x i8]* @.str, i64 0, i64 0), i32* %2)
  store i32 1, i32* %4, align 4
  br label %6

6:                                                ; preds = %39, %0
  %7 = load i32, i32* %4, align 4
  %8 = load i32, i32* %2, align 4
  %9 = icmp sle i32 %7, %8
  br i1 %9, label %10, label %42

10:                                               ; preds = %6
  %11 = load i32, i32* %4, align 4
  %12 = srem i32 %11, 7
  %13 = icmp eq i32 %12, 0
  br i1 %13, label %32, label %14

14:                                               ; preds = %10
  %15 = load i32, i32* %4, align 4
  %16 = icmp sgt i32 %15, 11
  br i1 %16, label %17, label %22

17:                                               ; preds = %14
  %18 = load i32, i32* %4, align 4
  %19 = sdiv i32 %18, 10
  %20 = srem i32 %19, 7
  %21 = icmp eq i32 %20, 0
  br i1 %21, label %32, label %22

22:                                               ; preds = %17, %14
  %23 = load i32, i32* %4, align 4
  %24 = icmp sgt i32 %23, 7
  br i1 %24, label %25, label %33

25:                                               ; preds = %22
  %26 = load i32, i32* %4, align 4
  %27 = load i32, i32* %4, align 4
  %28 = sdiv i32 %27, 10
  %29 = mul nsw i32 %28, 10
  %30 = sub nsw i32 %26, %29
  %31 = icmp eq i32 %30, 7
  br i1 %31, label %32, label %33

32:                                               ; preds = %25, %17, %10
  br label %39

33:                                               ; preds = %25, %22
  %34 = load i32, i32* %4, align 4
  %35 = load i32, i32* %4, align 4
  %36 = mul nsw i32 %34, %35
  %37 = load i32, i32* %3, align 4
  %38 = add nsw i32 %37, %36
  store i32 %38, i32* %3, align 4
  br label %39

39:                                               ; preds = %33, %32
  %40 = load i32, i32* %4, align 4
  %41 = add nsw i32 %40, 1
  store i32 %41, i32* %4, align 4
  br label %6

42:                                               ; preds = %6
  %43 = load i32, i32* %3, align 4
  %44 = call i32 (i8*, ...) @printf(i8* getelementptr inbounds ([3 x i8], [3 x i8]* @.str, i64 0, i64 0), i32 %43)
  ret i32 0
}

declare dso_local i32 @__isoc99_scanf(i8*, ...) #1

declare dso_local i32 @printf(i8*, ...) #1


!llvm.module.flags = !{!0}
!llvm.ident = !{!1}

!0 = !{i32 1, !"wchar_size", i32 4}
!1 = !{!"clang version 10.0.0-4ubuntu1 "}
